target datalayout = "e-m:e-p270:32:32-p271:32:32-p272:64:64-i64:64-i128:128-f80:128-n8:16:32:64-S128"
target triple = "x86_64-pc-linux-gnu"

%struct.PyMemAllocatorEx = type { ptr, ptr, ptr, ptr, ptr }
%struct.alloc_hook_t = type { %struct.PyMemAllocatorEx, i64, i64, i64, ptr, i64, ptr, ptr }

; Function Attrs: nounwind uwtable
define internal ptr @hook_calloc(ptr noundef %0, i64 noundef %1, i64 noundef %2) #0 {
  %4 = alloca ptr, align 8
  %5 = alloca i64, align 8
  %6 = alloca i64, align 8
  %7 = alloca ptr, align 8
  store ptr %0, ptr %4, align 8, !tbaa !18
  store i64 %1, ptr %5, align 8, !tbaa !22
  store i64 %2, ptr %6, align 8, !tbaa !22
  call void @llvm.lifetime.start.p0(i64 8, ptr %7) #6
  %8 = load ptr, ptr %4, align 8, !tbaa !18
  store ptr %8, ptr %7, align 8, !tbaa !18
  %9 = load ptr, ptr %4, align 8, !tbaa !18
  %10 = load ptr, ptr %7, align 8, !tbaa !18
  %11 = getelementptr inbounds nuw %struct.alloc_hook_t, ptr %10, i32 0, i32 7
  store ptr %9, ptr %11, align 8, !tbaa !39
  %12 = load i64, ptr %5, align 8, !tbaa !22
  %13 = load ptr, ptr %7, align 8, !tbaa !18
  %14 = getelementptr inbounds nuw %struct.alloc_hook_t, ptr %13, i32 0, i32 2
  store i64 %12, ptr %14, align 8, !tbaa !45
  %15 = load i64, ptr %6, align 8, !tbaa !22
  %16 = load ptr, ptr %7, align 8, !tbaa !18
  %17 = getelementptr inbounds nuw %struct.alloc_hook_t, ptr %16, i32 0, i32 3
  store i64 %15, ptr %17, align 8, !tbaa !46
  %18 = load ptr, ptr %7, align 8, !tbaa !18
  %19 = getelementptr inbounds nuw %struct.alloc_hook_t, ptr %18, i32 0, i32 0
  %20 = getelementptr inbounds nuw %struct.PyMemAllocatorEx, ptr %19, i32 0, i32 2
  %21 = load ptr, ptr %20, align 8, !tbaa !49
  %22 = load ptr, ptr %7, align 8, !tbaa !18
  %23 = getelementptr inbounds nuw %struct.alloc_hook_t, ptr %22, i32 0, i32 0
  %24 = getelementptr inbounds nuw %struct.PyMemAllocatorEx, ptr %23, i32 0, i32 0
  %25 = load ptr, ptr %24, align 8, !tbaa !48
  %26 = load i64, ptr %5, align 8, !tbaa !22
  %27 = load i64, ptr %6, align 8, !tbaa !22
  %28 = call ptr %21(ptr noundef %25, i64 noundef %26, i64 noundef %27)
  call void @llvm.lifetime.end.p0(i64 8, ptr %7) #6
  ret ptr %28
}