; Function Attrs: nounwind uwtable
define internal ptr @hook_calloc(ptr noundef %0, i64 noundef %1, i64 noundef %2) #0 {
  %4 = getelementptr inbounds nuw i8, ptr %0, i64 88
  store ptr %0, ptr %4, align 8, !tbaa !31
  %5 = getelementptr inbounds nuw i8, ptr %0, i64 48
  store i64 %1, ptr %5, align 8, !tbaa !36
  %6 = getelementptr inbounds nuw i8, ptr %0, i64 56
  store i64 %2, ptr %6, align 8, !tbaa !39
  %7 = getelementptr inbounds nuw i8, ptr %0, i64 16
  %8 = load ptr, ptr %7, align 8, !tbaa !40
  %9 = load ptr, ptr %0, align 8, !tbaa !38
  %10 = tail call ptr %8(ptr noundef %9, i64 noundef %1, i64 noundef %2) #4
  ret ptr %10
}